; Function Attrs: nounwind uwtable
define dso_local range(i32 -30, 1) i32 @archive_read_set_skip_callback(ptr noundef %0, ptr noundef %1) local_unnamed_addr #0 {
  %3 = tail call i32 @__archive_check_magic(ptr noundef %0, i32 noundef 14594245, i32 noundef 1, ptr noundef nonnull @.str.3) #15
  %.not = icmp eq i32 %3, -30
  br i1 %.not, label %6, label %4

4:                                                ; preds = %2
  %5 = getelementptr inbounds nuw i8, ptr %0, i64 192
  store ptr %1, ptr %5, align 8, !tbaa !80
  br label %6

6:                                                ; preds = %2, %4
  %.1 = phi i32 [ 0, %4 ], [ -30, %2 ]
  ret i32 %.1
}